target datalayout = "e-m:e-p270:32:32-p271:32:32-p272:64:64-i64:64-i128:128-f80:128-n8:16:32:64-S128"
target triple = "x86_64-pc-linux-gnu"

%struct.asn1_get_sequence_of_cb_ctx_t = type { i32, ptr }

; Function Attrs: mustprogress uwtable
define hidden i32 @mbedtls_asn1_get_sequence_of(ptr noundef %0, ptr noundef %1, ptr noundef %2, i32 noundef %3) #2 {
  %5 = alloca ptr, align 8
  %6 = alloca ptr, align 8
  %7 = alloca ptr, align 8
  %8 = alloca i32, align 4
  %9 = alloca %struct.asn1_get_sequence_of_cb_ctx_t, align 8
  store ptr %0, ptr %5, align 8, !tbaa !3
  store ptr %1, ptr %6, align 8, !tbaa !8
  store ptr %2, ptr %7, align 8, !tbaa !32
  store i32 %3, ptr %8, align 4, !tbaa !15
  call void @llvm.lifetime.start.p0(i64 16, ptr %9) #8
  %10 = getelementptr inbounds nuw %struct.asn1_get_sequence_of_cb_ctx_t, ptr %9, i32 0, i32 0
  %11 = load i32, ptr %8, align 4, !tbaa !15
  store i32 %11, ptr %10, align 8, !tbaa !38
  %12 = getelementptr inbounds nuw %struct.asn1_get_sequence_of_cb_ctx_t, ptr %9, i32 0, i32 1
  %13 = load ptr, ptr %7, align 8, !tbaa !32
  store ptr %13, ptr %12, align 8, !tbaa !40
  %14 = load ptr, ptr %7, align 8, !tbaa !32
  call void @llvm.memset.p0.i64(ptr align 8 %14, i8 0, i64 32, i1 false)
  %15 = load ptr, ptr %5, align 8, !tbaa !3
  %16 = load ptr, ptr %6, align 8, !tbaa !8
  %17 = load i32, ptr %8, align 4, !tbaa !15
  %18 = trunc i32 %17 to i8
  %19 = call i32 @mbedtls_asn1_traverse_sequence_of(ptr noundef %15, ptr noundef %16, i8 noundef zeroext -1, i8 noundef zeroext %18, i8 noundef zeroext 0, i8 noundef zeroext 0, ptr noundef @_ZL23asn1_get_sequence_of_cbPviPhm, ptr noundef %9)
  call void @llvm.lifetime.end.p0(i64 16, ptr %9) #8
  ret i32 %19
}